; Function Attrs: nounwind uwtable
define range(i32 0, 2) i32 @Cec3_ManVerify_rec(ptr noundef %0, i32 noundef %1, ptr noundef %2) local_unnamed_addr #2 {
  %4 = getelementptr i8, ptr %0, i64 32
  %.val32 = load ptr, ptr %4, align 8, !tbaa !11
  %5 = sext i32 %1 to i64
  %6 = getelementptr inbounds %struct.Gia_Obj_t_, ptr %.val32, i64 %5
  %7 = icmp eq i32 %1, 0
  br i1 %7, label %common.ret39, label %8

8:                                                ; preds = %3
  %9 = getelementptr i8, ptr %0, i64 176
  %.val35 = load i32, ptr %9, align 8, !tbaa !131
  %10 = getelementptr i8, ptr %0, i64 616
  %.val36 = load ptr, ptr %10, align 8, !tbaa !132
  %11 = getelementptr inbounds i32, ptr %.val36, i64 %5
  %12 = load i32, ptr %11, align 4, !tbaa !34
  %.not = icmp eq i32 %12, %.val35
  br i1 %.not, label %13, label %18

13:                                               ; preds = %8
  %14 = load i64, ptr %6, align 4
  %15 = lshr i64 %14, 62
  %16 = trunc nuw nsw i64 %15 to i32
  %17 = and i32 %16, 1
  br label %common.ret39

18:                                               ; preds = %8
  store i32 %.val35, ptr %11, align 4, !tbaa !34
  %.val29 = load i64, ptr %6, align 4
  %19 = and i64 %.val29, 2684354559
  %narrow.i.not = icmp eq i64 %19, 2684354559
  br i1 %narrow.i.not, label %20, label %32

20:                                               ; preds = %18
  %21 = getelementptr i8, ptr %0, i64 416
  %.val28 = load ptr, ptr %21, align 8, !tbaa !33
  %22 = shl nsw i64 %5, 2
  %23 = getelementptr inbounds i8, ptr %.val28, i64 %22
  %24 = load i32, ptr %23, align 4, !tbaa !34
  %25 = tail call i32 @bmcg_sat_solver_read_cex_varvalue(ptr noundef %2, i32 noundef %24) #22
  %26 = load i64, ptr %6, align 4
  %27 = and i32 %25, 1
  %28 = zext nneg i32 %27 to i64
  %29 = shl nuw nsw i64 %28, 62
  %30 = and i64 %26, -4611686018427387905
  %31 = or disjoint i64 %29, %30
  store i64 %31, ptr %6, align 4
  br label %common.ret39

common.ret39:                                     ; preds = %3, %20, %13, %32
  %common.ret39.op = phi i32 [ %49, %32 ], [ %17, %13 ], [ %27, %20 ], [ 0, %3 ]
  ret i32 %common.ret39.op

32:                                               ; preds = %18
  %33 = trunc i64 %.val29 to i32
  %34 = and i32 %33, 536870911
  %35 = sub nsw i32 %1, %34
  %36 = tail call i32 @Cec3_ManVerify_rec(ptr noundef nonnull %0, i32 noundef %35, ptr noundef %2)
  %.val30 = load i64, ptr %6, align 4
  %37 = trunc i64 %.val30 to i32
  %38 = lshr i32 %37, 29
  %39 = xor i32 %38, %36
  %40 = lshr i64 %.val30, 32
  %41 = trunc nuw i64 %40 to i32
  %42 = and i32 %41, 536870911
  %43 = sub nsw i32 %1, %42
  %44 = tail call i32 @Cec3_ManVerify_rec(ptr noundef nonnull %0, i32 noundef %43, ptr noundef %2)
  %.val31 = load i64, ptr %6, align 4
  %45 = lshr i64 %.val31, 61
  %46 = trunc nuw nsw i64 %45 to i32
  %47 = and i32 %46, 1
  %48 = xor i32 %47, %44
  %49 = and i32 %48, %39
  %50 = zext nneg i32 %49 to i64
  %51 = shl nuw nsw i64 %50, 62
  %52 = and i64 %.val31, -4611686018427387905
  %53 = or disjoint i64 %51, %52
  store i64 %53, ptr %6, align 4
  br label %common.ret39
}